target datalayout = "e-m:e-p270:32:32-p271:32:32-p272:64:64-i64:64-i128:128-f80:128-n8:16:32:64-S128"
target triple = "x86_64-pc-linux-gnu"

%struct.ParallelVacuumState = type { ptr, ptr, ptr, i32, ptr, ptr, ptr, ptr, ptr, ptr, i32, i32, i32, ptr, ptr, ptr, ptr, i32 }
%struct.PVShared = type { i32, i32, i64, double, i8, i32, i32, %struct.pg_atomic_uint32, %struct.pg_atomic_uint32, %struct.pg_atomic_uint32, i32, i64, %struct.VacDeadItemsInfo }
%struct.pg_atomic_uint32 = type { i32 }
%struct.VacDeadItemsInfo = type { i64, i64 }

; Function Attrs: nounwind uwtable
define dso_local void @parallel_vacuum_bulkdel_all_indexes(ptr noundef %0, i64 noundef %1, i32 noundef %2) #0 {
  %4 = alloca ptr, align 8
  %5 = alloca i64, align 8
  %6 = alloca i32, align 4
  store ptr %0, ptr %4, align 8
  store i64 %1, ptr %5, align 8
  store i32 %2, ptr %6, align 4
  %7 = load i64, ptr %5, align 8
  %8 = sitofp i64 %7 to double
  %9 = load ptr, ptr %4, align 8
  %10 = getelementptr inbounds nuw %struct.ParallelVacuumState, ptr %9, i32 0, i32 4
  %11 = load ptr, ptr %10, align 8
  %12 = getelementptr inbounds nuw %struct.PVShared, ptr %11, i32 0, i32 3
  store double %8, ptr %12, align 8
  %13 = load ptr, ptr %4, align 8
  %14 = getelementptr inbounds nuw %struct.ParallelVacuumState, ptr %13, i32 0, i32 4
  %15 = load ptr, ptr %14, align 8
  %16 = getelementptr inbounds nuw %struct.PVShared, ptr %15, i32 0, i32 4
  store i8 1, ptr %16, align 8
  %17 = load ptr, ptr %4, align 8
  %18 = load i32, ptr %6, align 4
  call void @parallel_vacuum_process_all_indexes(ptr noundef %17, i32 noundef %18, i1 noundef zeroext true)
  ret void
}