; Function Attrs: nounwind uwtable
define dso_local void @parallel_vacuum_bulkdel_all_indexes(ptr noundef captures(none) %0, i64 noundef %1, i32 noundef %2) local_unnamed_addr #0 {
  %4 = sitofp i64 %1 to double
  %5 = getelementptr inbounds nuw i8, ptr %0, i64 32
  %6 = load ptr, ptr %5, align 8
  %7 = getelementptr inbounds nuw i8, ptr %6, i64 16
  store double %4, ptr %7, align 8
  %8 = load ptr, ptr %5, align 8
  %9 = getelementptr inbounds nuw i8, ptr %8, i64 24
  store i8 1, ptr %9, align 8
  tail call fastcc void @parallel_vacuum_process_all_indexes(ptr noundef %0, i32 noundef %2, i1 noundef zeroext true)
  ret void
}